target datalayout = "e-m:e-p270:32:32-p271:32:32-p272:64:64-i64:64-i128:128-f80:128-n8:16:32:64-S128"
target triple = "x86_64-pc-linux-gnu"

%"class.vcg::Point3" = type { [3 x float] }
%"class.vcg::Transform" = type { %"class.vcg::Similarityf", %"class.vcg::Point3", float }
%"class.vcg::Similarityf" = type { %"class.vcg::Similarity" }
%"class.vcg::Similarity" = type { %"class.vcg::Quaternion", %"class.vcg::Point3", float }
%"class.vcg::Quaternion" = type { %"class.vcg::Point4" }
%"class.vcg::Point4" = type { [4 x float] }

; Function Attrs: mustprogress nounwind uwtable
define linkonce_odr noundef float @_ZSt3powff(float noundef %0, float noundef %1) #0 comdat {
  %3 = alloca float, align 4
  %4 = alloca float, align 4
  store float %0, ptr %3, align 4
  store float %1, ptr %4, align 4
  %5 = load float, ptr %3, align 4
  %6 = load float, ptr %4, align 4
  %7 = call float @powf(float noundef %5, float noundef %6) #7
  ret float %7
}

; Function Attrs: mustprogress uwtable
define void @_ZN3vcg9ScaleMode5ApplyEPNS_9TrackballEf(ptr noundef nonnull align 8 dereferenceable(8) %0, ptr noundef %1, float noundef %2) unnamed_addr #3 align 2 {
  %4 = alloca ptr, align 8
  %5 = alloca ptr, align 8
  %6 = alloca float, align 4
  store ptr %0, ptr %4, align 8
  store ptr %1, ptr %5, align 8
  store float %2, ptr %6, align 4
  %7 = load float, ptr %6, align 4
  %8 = fneg float %7
  %9 = call noundef float @_ZSt3powff(float noundef 0x3FF3333340000000, float noundef %8)
  %10 = load ptr, ptr %5, align 8
  %11 = getelementptr inbounds %"class.vcg::Transform", ptr %10, i32 0, i32 0
  %12 = getelementptr inbounds %"class.vcg::Similarity", ptr %11, i32 0, i32 2
  %13 = load float, ptr %12, align 4
  %14 = fmul float %13, %9
  store float %14, ptr %12, align 4
  ret void
}