; Function Attrs: mustprogress nofree nounwind willreturn memory(write, argmem: readwrite) uwtable
define void @_ZN3vcg9ScaleMode5ApplyEPNS_9TrackballEf(ptr nocapture nonnull readnone align 8 %0, ptr nocapture noundef %1, float noundef %2) unnamed_addr #9 align 2 {
  %4 = fneg float %2
  %5 = tail call noundef float @powf(float noundef 0x3FF3333340000000, float noundef %4) #34
  %6 = getelementptr inbounds i8, ptr %1, i64 28
  %7 = load float, ptr %6, align 4
  %8 = fmul float %5, %7
  store float %8, ptr %6, align 4
  ret void
}